; Function Attrs: nounwind uwtable
define zeroext range(i8 0, 2) i8 @l_Array_qsort_sort___at_Lean_Linter_constructorNameAsVariable___elambda__1___spec__15___lambda__1(ptr noundef readonly captures(none) %0, ptr noundef readonly captures(none) %1) local_unnamed_addr #0 {
  %3 = getelementptr inbounds nuw i8, ptr %0, i64 8
  %4 = load ptr, ptr %3, align 8, !tbaa !4
  %5 = getelementptr inbounds nuw i8, ptr %4, i64 8
  %6 = load ptr, ptr %5, align 8, !tbaa !4
  %7 = getelementptr inbounds nuw i8, ptr %1, i64 8
  %8 = load ptr, ptr %7, align 8, !tbaa !4
  %9 = getelementptr inbounds nuw i8, ptr %8, i64 8
  %10 = load ptr, ptr %9, align 8, !tbaa !4
  %11 = ptrtoint ptr %6 to i64
  %12 = and i64 %11, 1
  %13 = icmp ne i64 %12, 0
  %14 = ptrtoint ptr %10 to i64
  %15 = and i64 %14, 1
  %16 = icmp ne i64 %15, 0
  %or.cond = select i1 %13, i1 %16, i1 false
  br i1 %or.cond, label %17, label %.critedge.i, !prof !19

17:                                               ; preds = %2
  %18 = icmp ult ptr %6, %10
  br label %lean_nat_lt.exit

.critedge.i:                                      ; preds = %2
  %19 = tail call zeroext i1 @lean_nat_big_lt(ptr noundef %6, ptr noundef %10) #4
  br label %lean_nat_lt.exit

lean_nat_lt.exit:                                 ; preds = %17, %.critedge.i
  %.0.i = phi i1 [ %18, %17 ], [ %19, %.critedge.i ]
  %20 = zext i1 %.0.i to i8
  ret i8 %20
}